target datalayout = "e-m:e-p270:32:32-p271:32:32-p272:64:64-i64:64-i128:128-f80:128-n8:16:32:64-S128"
target triple = "x86_64-pc-linux-gnu"

%struct.lv_pinyin_dict_t = type { ptr, ptr }
%struct.lv_ll_t = type { i32, ptr, ptr }
%struct._lv_ime_pinyin_t = type { %struct._lv_obj_t, ptr, ptr, ptr, %struct.lv_ll_t, ptr, [16 x i8], [8 x i8], i16, i16, i16, i16, i16, i16, [26 x i16], [26 x i16], i32 }
%struct._lv_obj_t = type { ptr, ptr, ptr, ptr, ptr, %struct.lv_area_t, i32, i16, i16 }
%struct.lv_area_t = type { i32, i32, i32, i32 }

; Function Attrs: nounwind uwtable
define internal void @init_pinyin_dict(ptr noundef %0, ptr noundef %1) #0 {
  %3 = alloca ptr, align 8
  %4 = alloca ptr, align 8
  %5 = alloca ptr, align 8
  %6 = alloca i8, align 1
  %7 = alloca i16, align 2
  %8 = alloca i16, align 2
  %9 = alloca i16, align 2
  %10 = alloca i16, align 2
  store ptr %0, ptr %3, align 8, !tbaa !8
  store ptr %1, ptr %4, align 8, !tbaa !41
  call void @llvm.lifetime.start.p0(i64 8, ptr %5) #6
  %11 = load ptr, ptr %3, align 8, !tbaa !8
  store ptr %11, ptr %5, align 8, !tbaa !10
  call void @llvm.lifetime.start.p0(i64 1, ptr %6) #6
  store i8 97, ptr %6, align 1, !tbaa !16
  call void @llvm.lifetime.start.p0(i64 2, ptr %7) #6
  store i16 0, ptr %7, align 2, !tbaa !12
  call void @llvm.lifetime.start.p0(i64 2, ptr %8) #6
  store i16 0, ptr %8, align 2, !tbaa !12
  call void @llvm.lifetime.start.p0(i64 2, ptr %9) #6
  store i16 0, ptr %9, align 2, !tbaa !12
  %12 = load ptr, ptr %4, align 8, !tbaa !41
  %13 = load ptr, ptr %5, align 8, !tbaa !10
  %14 = getelementptr inbounds nuw %struct._lv_ime_pinyin_t, ptr %13, i32 0, i32 3
  store ptr %12, ptr %14, align 8, !tbaa !42
  call void @llvm.lifetime.start.p0(i64 2, ptr %10) #6
  store i16 0, ptr %10, align 2, !tbaa !12
  br label %15

15:                                               ; preds = %100, %2
  %16 = load ptr, ptr %4, align 8, !tbaa !41
  %17 = load i16, ptr %10, align 2, !tbaa !12
  %18 = zext i16 %17 to i64
  %19 = getelementptr inbounds nuw %struct.lv_pinyin_dict_t, ptr %16, i64 %18
  %20 = getelementptr inbounds nuw %struct.lv_pinyin_dict_t, ptr %19, i32 0, i32 0
  %21 = load ptr, ptr %20, align 8, !tbaa !43
  %22 = icmp eq ptr null, %21
  br i1 %22, label %31, label %23

23:                                               ; preds = %15
  %24 = load ptr, ptr %4, align 8, !tbaa !41
  %25 = load i16, ptr %10, align 2, !tbaa !12
  %26 = zext i16 %25 to i64
  %27 = getelementptr inbounds nuw %struct.lv_pinyin_dict_t, ptr %24, i64 %26
  %28 = getelementptr inbounds nuw %struct.lv_pinyin_dict_t, ptr %27, i32 0, i32 1
  %29 = load ptr, ptr %28, align 8, !tbaa !45
  %30 = icmp eq ptr null, %29
  br i1 %30, label %31, label %52

31:                                               ; preds = %23, %15
  %32 = load ptr, ptr %4, align 8, !tbaa !41
  %33 = load i16, ptr %10, align 2, !tbaa !12
  %34 = zext i16 %33 to i32
  %35 = sub nsw i32 %34, 1
  %36 = sext i32 %35 to i64
  %37 = getelementptr inbounds %struct.lv_pinyin_dict_t, ptr %32, i64 %36
  %38 = getelementptr inbounds nuw %struct.lv_pinyin_dict_t, ptr %37, i32 0, i32 0
  %39 = load ptr, ptr %38, align 8, !tbaa !43
  %40 = getelementptr inbounds i8, ptr %39, i64 0
  %41 = load i8, ptr %40, align 1, !tbaa !16
  store i8 %41, ptr %6, align 1, !tbaa !16
  %42 = load i8, ptr %6, align 1, !tbaa !16
  %43 = sext i8 %42 to i32
  %44 = sub nsw i32 %43, 97
  %45 = trunc i32 %44 to i16
  store i16 %45, ptr %9, align 2, !tbaa !12
  %46 = load i16, ptr %8, align 2, !tbaa !12
  %47 = load ptr, ptr %5, align 8, !tbaa !10
  %48 = getelementptr inbounds nuw %struct._lv_ime_pinyin_t, ptr %47, i32 0, i32 14
  %49 = load i16, ptr %9, align 2, !tbaa !12
  %50 = zext i16 %49 to i64
  %51 = getelementptr inbounds nuw [26 x i16], ptr %48, i64 0, i64 %50
  store i16 %46, ptr %51, align 2, !tbaa !12
  call void @llvm.lifetime.end.p0(i64 2, ptr %10) #6
  br label %103

52:                                               ; preds = %23
  %53 = load i8, ptr %6, align 1, !tbaa !16
  %54 = sext i8 %53 to i32
  %55 = load ptr, ptr %4, align 8, !tbaa !41
  %56 = load i16, ptr %10, align 2, !tbaa !12
  %57 = zext i16 %56 to i64
  %58 = getelementptr inbounds nuw %struct.lv_pinyin_dict_t, ptr %55, i64 %57
  %59 = getelementptr inbounds nuw %struct.lv_pinyin_dict_t, ptr %58, i32 0, i32 0
  %60 = load ptr, ptr %59, align 8, !tbaa !43
  %61 = getelementptr inbounds i8, ptr %60, i64 0
  %62 = load i8, ptr %61, align 1, !tbaa !16
  %63 = sext i8 %62 to i32
  %64 = icmp eq i32 %54, %63
  br i1 %64, label %65, label %68

65:                                               ; preds = %52
  %66 = load i16, ptr %8, align 2, !tbaa !12
  %67 = add i16 %66, 1
  store i16 %67, ptr %8, align 2, !tbaa !12
  br label %99

68:                                               ; preds = %52
  %69 = load ptr, ptr %4, align 8, !tbaa !41
  %70 = load i16, ptr %10, align 2, !tbaa !12
  %71 = zext i16 %70 to i64
  %72 = getelementptr inbounds nuw %struct.lv_pinyin_dict_t, ptr %69, i64 %71
  %73 = getelementptr inbounds nuw %struct.lv_pinyin_dict_t, ptr %72, i32 0, i32 0
  %74 = load ptr, ptr %73, align 8, !tbaa !43
  %75 = getelementptr inbounds i8, ptr %74, i64 0
  %76 = load i8, ptr %75, align 1, !tbaa !16
  store i8 %76, ptr %6, align 1, !tbaa !16
  %77 = load i16, ptr %8, align 2, !tbaa !12
  %78 = load ptr, ptr %5, align 8, !tbaa !10
  %79 = getelementptr inbounds nuw %struct._lv_ime_pinyin_t, ptr %78, i32 0, i32 14
  %80 = load i16, ptr %9, align 2, !tbaa !12
  %81 = zext i16 %80 to i64
  %82 = getelementptr inbounds nuw [26 x i16], ptr %79, i64 0, i64 %81
  store i16 %77, ptr %82, align 2, !tbaa !12
  %83 = load i8, ptr %6, align 1, !tbaa !16
  %84 = sext i8 %83 to i32
  %85 = sub nsw i32 %84, 97
  %86 = trunc i32 %85 to i16
  store i16 %86, ptr %9, align 2, !tbaa !12
  %87 = load i16, ptr %8, align 2, !tbaa !12
  %88 = zext i16 %87 to i32
  %89 = load i16, ptr %7, align 2, !tbaa !12
  %90 = zext i16 %89 to i32
  %91 = add nsw i32 %90, %88
  %92 = trunc i32 %91 to i16
  store i16 %92, ptr %7, align 2, !tbaa !12
  %93 = load i16, ptr %7, align 2, !tbaa !12
  %94 = load ptr, ptr %5, align 8, !tbaa !10
  %95 = getelementptr inbounds nuw %struct._lv_ime_pinyin_t, ptr %94, i32 0, i32 15
  %96 = load i16, ptr %9, align 2, !tbaa !12
  %97 = zext i16 %96 to i64
  %98 = getelementptr inbounds nuw [26 x i16], ptr %95, i64 0, i64 %97
  store i16 %93, ptr %98, align 2, !tbaa !12
  store i16 1, ptr %8, align 2, !tbaa !12
  br label %99

99:                                               ; preds = %68, %65
  br label %100

100:                                              ; preds = %99
  %101 = load i16, ptr %10, align 2, !tbaa !12
  %102 = add i16 %101, 1
  store i16 %102, ptr %10, align 2, !tbaa !12
  br label %15

103:                                              ; preds = %31
  call void @llvm.lifetime.end.p0(i64 2, ptr %9) #6
  call void @llvm.lifetime.end.p0(i64 2, ptr %8) #6
  call void @llvm.lifetime.end.p0(i64 2, ptr %7) #6
  call void @llvm.lifetime.end.p0(i64 1, ptr %6) #6
  call void @llvm.lifetime.end.p0(i64 8, ptr %5) #6
  ret void
}

; Function Attrs: nounwind uwtable
define void @lv_ime_pinyin_set_dict(ptr noundef %0, ptr noundef %1) #0 {
  %3 = alloca ptr, align 8
  %4 = alloca ptr, align 8
  store ptr %0, ptr %3, align 8, !tbaa !8
  store ptr %1, ptr %4, align 8, !tbaa !41
  br label %5

5:                                                ; preds = %2
  %6 = load ptr, ptr %3, align 8, !tbaa !8
  %7 = icmp ne ptr %6, null
  br i1 %7, label %12, label %8

8:                                                ; preds = %5
  br label %9

9:                                                ; preds = %8
  br label %10

10:                                               ; preds = %9
  br label %11

11:                                               ; preds = %10, %11
  br label %11

12:                                               ; preds = %5
  br label %13

13:                                               ; preds = %12
  %14 = load ptr, ptr %3, align 8, !tbaa !8
  %15 = load ptr, ptr %4, align 8, !tbaa !41
  call void @init_pinyin_dict(ptr noundef %14, ptr noundef %15)
  ret void
}