; Function Attrs: nofree norecurse nosync nounwind memory(read, argmem: readwrite, inaccessiblemem: none) uwtable
define void @lv_ime_pinyin_set_dict(ptr noundef writeonly captures(address_is_null) %0, ptr noundef %1) local_unnamed_addr #3 {
  %.not = icmp eq ptr %0, null
  br i1 %.not, label %.preheader, label %3

.preheader:                                       ; preds = %2, %.preheader
  br label %.preheader

3:                                                ; preds = %2
  %4 = getelementptr inbounds nuw i8, ptr %0, i64 80
  store ptr %1, ptr %4, align 8, !tbaa !25
  %5 = load ptr, ptr %1, align 8, !tbaa !29
  %6 = icmp eq ptr %5, null
  br i1 %6, label %init_pinyin_dict.exit, label %.lr.ph.i

.lr.ph.i:                                         ; preds = %3
  %7 = getelementptr inbounds nuw i8, ptr %0, i64 156
  %8 = getelementptr inbounds nuw i8, ptr %0, i64 208
  br label %9

9:                                                ; preds = %28, %.lr.ph.i
  %10 = phi ptr [ %5, %.lr.ph.i ], [ %32, %28 ]
  %11 = phi ptr [ %1, %.lr.ph.i ], [ %31, %28 ]
  %.041.i = phi i16 [ 0, %.lr.ph.i ], [ %29, %28 ]
  %.02840.i = phi i16 [ 0, %.lr.ph.i ], [ %.1.i, %28 ]
  %.02939.i = phi i16 [ 0, %.lr.ph.i ], [ %.130.i, %28 ]
  %.03138.i = phi i16 [ 0, %.lr.ph.i ], [ %.132.i, %28 ]
  %.03337.i = phi i8 [ 97, %.lr.ph.i ], [ %.134.i, %28 ]
  %12 = getelementptr inbounds nuw i8, ptr %11, i64 8
  %13 = load ptr, ptr %12, align 8, !tbaa !26
  %14 = icmp eq ptr %13, null
  br i1 %14, label %init_pinyin_dict.exit, label %15

15:                                               ; preds = %9
  %16 = load i8, ptr %10, align 1, !tbaa !8
  %17 = icmp eq i8 %.03337.i, %16
  br i1 %17, label %18, label %20

18:                                               ; preds = %15
  %19 = add i16 %.02939.i, 1
  br label %28

20:                                               ; preds = %15
  %21 = sext i8 %16 to i16
  %22 = zext i16 %.02840.i to i64
  %23 = getelementptr inbounds nuw [26 x i16], ptr %7, i64 0, i64 %22
  store i16 %.02939.i, ptr %23, align 2, !tbaa !28
  %24 = add nsw i16 %21, -97
  %25 = add i16 %.03138.i, %.02939.i
  %26 = zext i16 %24 to i64
  %27 = getelementptr inbounds nuw [26 x i16], ptr %8, i64 0, i64 %26
  store i16 %25, ptr %27, align 2, !tbaa !28
  br label %28

28:                                               ; preds = %20, %18
  %.134.i = phi i8 [ %.03337.i, %18 ], [ %16, %20 ]
  %.132.i = phi i16 [ %.03138.i, %18 ], [ %25, %20 ]
  %.130.i = phi i16 [ %19, %18 ], [ 1, %20 ]
  %.1.i = phi i16 [ %.02840.i, %18 ], [ %24, %20 ]
  %29 = add i16 %.041.i, 1
  %30 = zext i16 %29 to i64
  %31 = getelementptr inbounds nuw %struct.lv_pinyin_dict_t, ptr %1, i64 %30
  %32 = load ptr, ptr %31, align 8, !tbaa !29
  %33 = icmp eq ptr %32, null
  br i1 %33, label %init_pinyin_dict.exit, label %9

init_pinyin_dict.exit:                            ; preds = %9, %28, %3
  %.029.lcssa.i = phi i16 [ 0, %3 ], [ %.130.i, %28 ], [ %.02939.i, %9 ]
  %.lcssa.i = phi ptr [ %1, %3 ], [ %31, %28 ], [ %11, %9 ]
  %34 = getelementptr i8, ptr %.lcssa.i, i64 -16
  %35 = load ptr, ptr %34, align 8, !tbaa !29
  %36 = load i8, ptr %35, align 1, !tbaa !8
  %37 = sext i8 %36 to i64
  %38 = add nsw i64 %37, 65439
  %39 = getelementptr inbounds nuw i8, ptr %0, i64 156
  %40 = and i64 %38, 65535
  %41 = getelementptr inbounds nuw [26 x i16], ptr %39, i64 0, i64 %40
  store i16 %.029.lcssa.i, ptr %41, align 2, !tbaa !28
  ret void
}